target datalayout = "e-m:e-p270:32:32-p271:32:32-p272:64:64-i64:64-i128:128-f80:128-n8:16:32:64-S128"
target triple = "x86_64-pc-linux-gnu"

%struct.crypto_ex_data_st = type { ptr }
%struct.ssl_session_st = type { i32, i32, i32, i32, [48 x i8], i32, [32 x i8], i32, [32 x i8], ptr, ptr, ptr, i64, i64, i64, ptr, %struct.crypto_ex_data_st, ptr, ptr, ptr, ptr, i64, i64, ptr, i64, ptr, [32 x i8], [64 x i8], i32, i32, i8 }
%struct.ssl_st = type { i32, i16, i16, ptr, ptr, ptr, ptr, ptr, i32, i32, ptr, ptr, i32, i32, ptr, ptr, ptr, ptr, ptr, ptr, ptr, ptr, i32, i32, [32 x i8], ptr, ptr, ptr, ptr, ptr, ptr, ptr, i64, %struct.crypto_ex_data_st, ptr, i32, i32, i32, i32, i16, ptr, i32, i64, ptr, ptr, ptr, ptr, ptr, ptr, i32, i32, ptr, ptr, i8, i8, i32 }

; Function Attrs: nounwind uwtable
define hidden ptr @SSL_get_servername(ptr noundef %0, i32 noundef %1) #0 {
  %3 = alloca ptr, align 8
  %4 = alloca ptr, align 8
  %5 = alloca i32, align 4
  store ptr %0, ptr %4, align 8, !tbaa !80
  store i32 %1, ptr %5, align 4, !tbaa !61
  %6 = load i32, ptr %5, align 4, !tbaa !61
  %7 = icmp ne i32 %6, 0
  br i1 %7, label %8, label %9

8:                                                ; preds = %2
  store ptr null, ptr %3, align 8
  br label %30

9:                                                ; preds = %2
  %10 = load ptr, ptr %4, align 8, !tbaa !80
  %11 = getelementptr inbounds nuw %struct.ssl_st, ptr %10, i32 0, i32 40
  %12 = load ptr, ptr %11, align 8, !tbaa !134
  %13 = icmp ne ptr %12, null
  br i1 %13, label %14, label %18

14:                                               ; preds = %9
  %15 = load ptr, ptr %4, align 8, !tbaa !80
  %16 = getelementptr inbounds nuw %struct.ssl_st, ptr %15, i32 0, i32 40
  %17 = load ptr, ptr %16, align 8, !tbaa !134
  store ptr %17, ptr %3, align 8
  br label %30

18:                                               ; preds = %9
  %19 = load ptr, ptr %4, align 8, !tbaa !80
  %20 = getelementptr inbounds nuw %struct.ssl_st, ptr %19, i32 0, i32 25
  %21 = load ptr, ptr %20, align 8, !tbaa !133
  %22 = icmp eq ptr %21, null
  br i1 %22, label %23, label %24

23:                                               ; preds = %18
  store ptr null, ptr %3, align 8
  br label %30

24:                                               ; preds = %18
  %25 = load ptr, ptr %4, align 8, !tbaa !80
  %26 = getelementptr inbounds nuw %struct.ssl_st, ptr %25, i32 0, i32 25
  %27 = load ptr, ptr %26, align 8, !tbaa !133
  %28 = getelementptr inbounds nuw %struct.ssl_session_st, ptr %27, i32 0, i32 19
  %29 = load ptr, ptr %28, align 8, !tbaa !209
  store ptr %29, ptr %3, align 8
  br label %30

30:                                               ; preds = %24, %23, %14, %8
  %31 = load ptr, ptr %3, align 8
  ret ptr %31
}