; Function Attrs: mustprogress nofree norecurse nosync nounwind willreturn memory(read, inaccessiblemem: none) uwtable
define hidden ptr @SSL_get_servername(ptr noundef readonly captures(none) %0, i32 noundef %1) local_unnamed_addr #10 {
  %.not = icmp eq i32 %1, 0
  br i1 %.not, label %3, label %13

3:                                                ; preds = %2
  %4 = getelementptr inbounds nuw i8, ptr %0, i64 288
  %5 = load ptr, ptr %4, align 8, !tbaa !123
  %.not7 = icmp eq ptr %5, null
  br i1 %.not7, label %6, label %13

6:                                                ; preds = %3
  %7 = getelementptr inbounds nuw i8, ptr %0, i64 184
  %8 = load ptr, ptr %7, align 8, !tbaa !122
  %9 = icmp eq ptr %8, null
  br i1 %9, label %13, label %10

10:                                               ; preds = %6
  %11 = getelementptr inbounds nuw i8, ptr %8, i64 216
  %12 = load ptr, ptr %11, align 8, !tbaa !189
  br label %13

13:                                               ; preds = %6, %3, %2, %10
  %.0 = phi ptr [ %12, %10 ], [ null, %2 ], [ %5, %3 ], [ null, %6 ]
  ret ptr %.0
}